; Function Attrs: nounwind uwtable
define internal ptr @sm_descr_get(ptr noundef readonly captures(none) %0, ptr readnone captures(none) %1, ptr readnone captures(none) %2) #0 {
  %4 = getelementptr inbounds nuw i8, ptr %0, i64 16
  %5 = load ptr, ptr %4, align 8, !tbaa !156
  %6 = icmp eq ptr %5, null
  br i1 %6, label %7, label %9

7:                                                ; preds = %3
  %8 = load ptr, ptr @PyExc_RuntimeError, align 8, !tbaa !96
  tail call void @PyErr_SetString(ptr noundef %8, ptr noundef nonnull @.str.78) #8
  br label %_Py_NewRef.exit

9:                                                ; preds = %3
  %10 = load i32, ptr %5, align 8, !tbaa !99
  %11 = icmp slt i32 %10, 0
  br i1 %11, label %_Py_NewRef.exit, label %12

12:                                               ; preds = %9
  %13 = add nuw i32 %10, 1
  store i32 %13, ptr %5, align 8, !tbaa !99
  br label %_Py_NewRef.exit

_Py_NewRef.exit:                                  ; preds = %12, %9, %7
  ret ptr %5
}